target datalayout = "e-m:e-p270:32:32-p271:32:32-p272:64:64-i64:64-i128:128-f80:128-n8:16:32:64-S128"
target triple = "x86_64-pc-linux-gnu"

%struct._zval_struct = type { %union._zend_value, %union.anon, %union.anon.2 }
%union._zend_value = type { i64 }
%union.anon = type { i32 }
%union.anon.2 = type { i32 }
%struct._zend_array = type { %struct._zend_refcounted_h, %union.anon.5, i32, %union.anon.7, i32, i32, i32, i32, i64, ptr }
%struct._zend_refcounted_h = type { i32, %union.anon.4 }
%union.anon.4 = type { i32 }
%union.anon.5 = type { i32 }
%union.anon.7 = type { ptr }
%struct._zend_execute_data = type { ptr, ptr, ptr, ptr, %struct._zval_struct, ptr, ptr, ptr, ptr }
%struct._zend_object = type { %struct._zend_refcounted_h, i32, ptr, ptr, ptr, [1 x %struct._zval_struct] }
%struct._zend_object_handlers = type { i32, ptr, ptr, ptr, ptr, ptr, ptr, ptr, ptr, ptr, ptr, ptr, ptr, ptr, ptr, ptr, ptr, ptr, ptr, ptr, ptr, ptr, ptr, ptr, ptr }
%struct._Bucket = type { %struct._zval_struct, i64, ptr }

; Function Attrs: nounwind uwtable
define hidden void @zif_array_is_list(ptr noundef %0, ptr noundef %1) #0 {
  %3 = alloca ptr, align 8
  %4 = alloca ptr, align 8
  %5 = alloca ptr, align 8
  %6 = alloca ptr, align 8
  %7 = alloca ptr, align 8
  %8 = alloca i1, align 1
  %9 = alloca ptr, align 8
  %10 = alloca i64, align 8
  %11 = alloca i64, align 8
  %12 = alloca ptr, align 8
  %13 = alloca ptr, align 8
  %14 = alloca i64, align 8
  %15 = alloca ptr, align 8
  %16 = alloca ptr, align 8
  %17 = alloca ptr, align 8
  %18 = alloca ptr, align 8
  %19 = alloca ptr, align 8
  %20 = alloca ptr, align 8
  %21 = alloca i32, align 4
  %22 = alloca ptr, align 8
  %23 = alloca ptr, align 8
  %24 = alloca ptr, align 8
  %25 = alloca i1, align 1
  %26 = alloca ptr, align 8
  %27 = alloca ptr, align 8
  %28 = alloca i8, align 1
  %29 = alloca i8, align 1
  %30 = alloca i8, align 1
  %31 = alloca ptr, align 8
  %32 = alloca ptr, align 8
  %33 = alloca ptr, align 8
  %34 = alloca ptr, align 8
  %35 = alloca i32, align 4
  %36 = alloca i32, align 4
  %37 = alloca i32, align 4
  %38 = alloca i32, align 4
  %39 = alloca i32, align 4
  %40 = alloca ptr, align 8
  %41 = alloca ptr, align 8
  %42 = alloca i32, align 4
  %43 = alloca ptr, align 8
  %44 = alloca i8, align 1
  %45 = alloca i8, align 1
  %46 = alloca i32, align 4
  store ptr %0, ptr %32, align 8
  store ptr %1, ptr %33, align 8
  br label %47

47:                                               ; preds = %2
  store i32 0, ptr %35, align 4
  store i32 1, ptr %36, align 4
  store i32 1, ptr %37, align 4
  %48 = load ptr, ptr %32, align 8
  %49 = getelementptr inbounds %struct._zend_execute_data, ptr %48, i32 0, i32 4
  %50 = getelementptr inbounds %struct._zval_struct, ptr %49, i32 0, i32 2
  %51 = load i32, ptr %50, align 4
  store i32 %51, ptr %38, align 4
  store i32 0, ptr %39, align 4
  store ptr null, ptr %41, align 8
  store i32 0, ptr %42, align 4
  store ptr null, ptr %43, align 8
  store i8 0, ptr %44, align 1
  store i8 0, ptr %45, align 1
  store i32 0, ptr %46, align 4
  br label %52

52:                                               ; preds = %47
  %53 = load i32, ptr %38, align 4
  %54 = load i32, ptr %36, align 4
  %55 = icmp ult i32 %53, %54
  %56 = xor i1 %55, true
  %57 = xor i1 %56, true
  %58 = zext i1 %57 to i32
  %59 = sext i32 %58 to i64
  %60 = icmp ne i64 %59, 0
  br i1 %60, label %70, label %61

61:                                               ; preds = %52
  %62 = load i32, ptr %38, align 4
  %63 = load i32, ptr %37, align 4
  %64 = icmp ugt i32 %62, %63
  %65 = xor i1 %64, true
  %66 = xor i1 %65, true
  %67 = zext i1 %66 to i32
  %68 = sext i32 %67 to i64
  %69 = icmp ne i64 %68, 0
  br i1 %69, label %70, label %73

70:                                               ; preds = %61, %52
  %71 = load i32, ptr %36, align 4
  %72 = load i32, ptr %37, align 4
  call void @zend_wrong_parameters_count_error(i32 noundef %71, i32 noundef %72)
  store i32 1, ptr %46, align 4
  br label %223

73:                                               ; preds = %61
  %74 = load ptr, ptr %32, align 8
  %75 = getelementptr inbounds %struct._zval_struct, ptr %74, i64 4
  store ptr %75, ptr %40, align 8
  %76 = load i32, ptr %39, align 4
  %77 = add i32 %76, 1
  store i32 %77, ptr %39, align 4
  %78 = load i32, ptr %39, align 4
  %79 = load i32, ptr %36, align 4
  %80 = icmp ule i32 %78, %79
  br i1 %80, label %86, label %81

81:                                               ; preds = %73
  %82 = load i8, ptr %45, align 1
  %83 = trunc i8 %82 to i1
  %84 = zext i1 %83 to i32
  %85 = icmp eq i32 %84, 1
  br label %86

86:                                               ; preds = %81, %73
  %87 = phi i1 [ true, %73 ], [ %85, %81 ]
  call void @llvm.assume(i1 %87)
  %88 = load i32, ptr %39, align 4
  %89 = load i32, ptr %36, align 4
  %90 = icmp ugt i32 %88, %89
  br i1 %90, label %96, label %91

91:                                               ; preds = %86
  %92 = load i8, ptr %45, align 1
  %93 = trunc i8 %92 to i1
  %94 = zext i1 %93 to i32
  %95 = icmp eq i32 %94, 0
  br label %96

96:                                               ; preds = %91, %86
  %97 = phi i1 [ true, %86 ], [ %95, %91 ]
  call void @llvm.assume(i1 %97)
  %98 = load i8, ptr %45, align 1
  %99 = trunc i8 %98 to i1
  br i1 %99, label %100, label %111

100:                                              ; preds = %96
  %101 = load i32, ptr %39, align 4
  %102 = load i32, ptr %38, align 4
  %103 = icmp ugt i32 %101, %102
  %104 = xor i1 %103, true
  %105 = xor i1 %104, true
  %106 = zext i1 %105 to i32
  %107 = sext i32 %106 to i64
  %108 = icmp ne i64 %107, 0
  br i1 %108, label %109, label %110

109:                                              ; preds = %100
  br label %223

110:                                              ; preds = %100
  br label %111

111:                                              ; preds = %110, %96
  %112 = load ptr, ptr %40, align 8
  %113 = getelementptr inbounds %struct._zval_struct, ptr %112, i32 1
  store ptr %113, ptr %40, align 8
  %114 = load ptr, ptr %40, align 8
  store ptr %114, ptr %41, align 8
  %115 = load ptr, ptr %41, align 8
  store ptr %115, ptr %26, align 8
  store ptr %34, ptr %27, align 8
  store i8 0, ptr %28, align 1
  store i8 0, ptr %29, align 1
  store i8 0, ptr %30, align 1
  %116 = load ptr, ptr %26, align 8
  store ptr %116, ptr %22, align 8
  %117 = load ptr, ptr %22, align 8
  %118 = getelementptr inbounds %struct._zval_struct, ptr %117, i32 0, i32 1
  %119 = load i8, ptr %118, align 8
  %120 = zext i8 %119 to i32
  %121 = icmp eq i32 %120, 7
  br i1 %121, label %122, label %126

122:                                              ; preds = %111
  %123 = load ptr, ptr %26, align 8
  %124 = load ptr, ptr %123, align 8
  %125 = load ptr, ptr %27, align 8
  store ptr %124, ptr %125, align 8
  br label %204

126:                                              ; preds = %111
  %127 = load i8, ptr %29, align 1
  %128 = trunc i8 %127 to i1
  br i1 %128, label %129, label %190

129:                                              ; preds = %126
  %130 = load ptr, ptr %26, align 8
  store ptr %130, ptr %23, align 8
  %131 = load ptr, ptr %23, align 8
  %132 = getelementptr inbounds %struct._zval_struct, ptr %131, i32 0, i32 1
  %133 = load i8, ptr %132, align 8
  %134 = zext i8 %133 to i32
  %135 = icmp eq i32 %134, 8
  br i1 %135, label %136, label %190

136:                                              ; preds = %129
  %137 = load ptr, ptr %26, align 8
  %138 = load ptr, ptr %137, align 8
  store ptr %138, ptr %31, align 8
  %139 = load i8, ptr %30, align 1
  %140 = trunc i8 %139 to i1
  br i1 %140, label %141, label %181

141:                                              ; preds = %136
  %142 = load ptr, ptr %31, align 8
  %143 = getelementptr inbounds %struct._zend_object, ptr %142, i32 0, i32 4
  %144 = load ptr, ptr %143, align 8
  %145 = icmp ne ptr %144, null
  br i1 %145, label %146, label %181

146:                                              ; preds = %141
  %147 = load ptr, ptr %31, align 8
  %148 = getelementptr inbounds %struct._zend_object, ptr %147, i32 0, i32 4
  %149 = load ptr, ptr %148, align 8
  store ptr %149, ptr %5, align 8
  %150 = load ptr, ptr %5, align 8
  %151 = load i32, ptr %150, align 4
  %152 = icmp ugt i32 %151, 1
  br i1 %152, label %153, label %181

153:                                              ; preds = %146
  %154 = load ptr, ptr %31, align 8
  %155 = getelementptr inbounds %struct._zend_object, ptr %154, i32 0, i32 4
  %156 = load ptr, ptr %155, align 8
  %157 = getelementptr inbounds %struct._zend_refcounted_h, ptr %156, i32 0, i32 1
  %158 = load i32, ptr %157, align 4
  store i32 %158, ptr %21, align 4
  %159 = load i32, ptr %21, align 4
  %160 = and i32 %159, 1008
  %161 = and i32 %160, 64
  %162 = icmp ne i32 %161, 0
  %163 = xor i1 %162, true
  br i1 %163, label %164, label %174

164:                                              ; preds = %153
  %165 = load ptr, ptr %31, align 8
  %166 = getelementptr inbounds %struct._zend_object, ptr %165, i32 0, i32 4
  %167 = load ptr, ptr %166, align 8
  store ptr %167, ptr %4, align 8
  %168 = load ptr, ptr %4, align 8
  %169 = load i32, ptr %168, align 4
  %170 = icmp ugt i32 %169, 0
  call void @llvm.assume(i1 %170)
  %171 = load ptr, ptr %4, align 8
  %172 = load i32, ptr %171, align 4
  %173 = add i32 %172, -1
  store i32 %173, ptr %171, align 4
  br label %174

174:                                              ; preds = %164, %153
  %175 = load ptr, ptr %31, align 8
  %176 = getelementptr inbounds %struct._zend_object, ptr %175, i32 0, i32 4
  %177 = load ptr, ptr %176, align 8
  %178 = call ptr @zend_array_dup(ptr noundef %177) #11
  %179 = load ptr, ptr %31, align 8
  %180 = getelementptr inbounds %struct._zend_object, ptr %179, i32 0, i32 4
  store ptr %178, ptr %180, align 8
  br label %181

181:                                              ; preds = %174, %146, %141, %136
  %182 = load ptr, ptr %31, align 8
  %183 = getelementptr inbounds %struct._zend_object, ptr %182, i32 0, i32 3
  %184 = load ptr, ptr %183, align 8
  %185 = getelementptr inbounds %struct._zend_object_handlers, ptr %184, i32 0, i32 13
  %186 = load ptr, ptr %185, align 8
  %187 = load ptr, ptr %31, align 8
  %188 = call ptr %186(ptr noundef %187) #11
  %189 = load ptr, ptr %27, align 8
  store ptr %188, ptr %189, align 8
  br label %203

190:                                              ; preds = %129, %126
  %191 = load i8, ptr %28, align 1
  %192 = trunc i8 %191 to i1
  br i1 %192, label %193, label %202

193:                                              ; preds = %190
  %194 = load ptr, ptr %26, align 8
  store ptr %194, ptr %24, align 8
  %195 = load ptr, ptr %24, align 8
  %196 = getelementptr inbounds %struct._zval_struct, ptr %195, i32 0, i32 1
  %197 = load i8, ptr %196, align 8
  %198 = zext i8 %197 to i32
  %199 = icmp eq i32 %198, 1
  br i1 %199, label %200, label %202

200:                                              ; preds = %193
  %201 = load ptr, ptr %27, align 8
  store ptr null, ptr %201, align 8
  br label %203

202:                                              ; preds = %193, %190
  store i1 false, ptr %25, align 1
  br label %205

203:                                              ; preds = %200, %181
  br label %204

204:                                              ; preds = %203, %122
  store i1 true, ptr %25, align 1
  br label %205

205:                                              ; preds = %204, %202
  %206 = load i1, ptr %25, align 1
  %207 = xor i1 %206, true
  %208 = xor i1 %207, true
  %209 = xor i1 %208, true
  %210 = zext i1 %209 to i32
  %211 = sext i32 %210 to i64
  %212 = icmp ne i64 %211, 0
  br i1 %212, label %213, label %214

213:                                              ; preds = %205
  store i32 6, ptr %42, align 4
  store i32 9, ptr %46, align 4
  br label %223

214:                                              ; preds = %205
  %215 = load i32, ptr %39, align 4
  %216 = load i32, ptr %37, align 4
  %217 = icmp eq i32 %215, %216
  br i1 %217, label %221, label %218

218:                                              ; preds = %214
  %219 = load i32, ptr %37, align 4
  %220 = icmp eq i32 %219, -1
  br label %221

221:                                              ; preds = %218, %214
  %222 = phi i1 [ true, %214 ], [ %220, %218 ]
  call void @llvm.assume(i1 %222)
  br label %223

223:                                              ; preds = %221, %213, %109, %70
  %224 = load i32, ptr %46, align 4
  %225 = icmp ne i32 %224, 0
  %226 = xor i1 %225, true
  %227 = xor i1 %226, true
  %228 = zext i1 %227 to i32
  %229 = sext i32 %228 to i64
  %230 = icmp ne i64 %229, 0
  br i1 %230, label %231, label %237

231:                                              ; preds = %223
  %232 = load i32, ptr %46, align 4
  %233 = load i32, ptr %39, align 4
  %234 = load ptr, ptr %43, align 8
  %235 = load i32, ptr %42, align 4
  %236 = load ptr, ptr %41, align 8
  call void @zend_wrong_parameter_error(i32 noundef %232, i32 noundef %233, ptr noundef %234, i32 noundef %235, ptr noundef %236)
  br label %366

237:                                              ; preds = %223
  br label %238

238:                                              ; preds = %237
  br label %239

239:                                              ; preds = %238
  br label %240

240:                                              ; preds = %239
  %241 = load ptr, ptr %34, align 8
  store ptr %241, ptr %9, align 8
  store i64 0, ptr %10, align 8
  %242 = load ptr, ptr %9, align 8
  store ptr %242, ptr %3, align 8
  %243 = load ptr, ptr %3, align 8
  %244 = getelementptr inbounds %struct._zend_array, ptr %243, i32 0, i32 5
  %245 = load i32, ptr %244, align 4
  %246 = icmp eq i32 %245, 0
  br i1 %246, label %247, label %248

247:                                              ; preds = %240
  store i1 true, ptr %8, align 1
  br label %360

248:                                              ; preds = %240
  %249 = load ptr, ptr %9, align 8
  %250 = getelementptr inbounds %struct._zend_array, ptr %249, i32 0, i32 1
  %251 = load i32, ptr %250, align 8
  %252 = and i32 %251, 4
  %253 = icmp ne i32 %252, 0
  br i1 %253, label %254, label %307

254:                                              ; preds = %248
  %255 = load ptr, ptr %9, align 8
  %256 = getelementptr inbounds %struct._zend_array, ptr %255, i32 0, i32 4
  %257 = load i32, ptr %256, align 8
  %258 = load ptr, ptr %9, align 8
  %259 = getelementptr inbounds %struct._zend_array, ptr %258, i32 0, i32 5
  %260 = load i32, ptr %259, align 4
  %261 = icmp eq i32 %257, %260
  br i1 %261, label %262, label %263

262:                                              ; preds = %254
  store i1 true, ptr %8, align 1
  br label %360

263:                                              ; preds = %254
  %264 = load ptr, ptr %9, align 8
  store ptr %264, ptr %13, align 8
  store i64 0, ptr %14, align 8
  %265 = load ptr, ptr %13, align 8
  %266 = getelementptr inbounds %struct._zend_array, ptr %265, i32 0, i32 3
  %267 = load ptr, ptr %266, align 8
  store ptr %267, ptr %15, align 8
  %268 = load ptr, ptr %13, align 8
  %269 = getelementptr inbounds %struct._zend_array, ptr %268, i32 0, i32 3
  %270 = load ptr, ptr %269, align 8
  %271 = load ptr, ptr %13, align 8
  %272 = getelementptr inbounds %struct._zend_array, ptr %271, i32 0, i32 4
  %273 = load i32, ptr %272, align 8
  %274 = zext i32 %273 to i64
  %275 = getelementptr inbounds %struct._zval_struct, ptr %270, i64 %274
  store ptr %275, ptr %16, align 8
  %276 = load ptr, ptr %13, align 8
  %277 = getelementptr inbounds %struct._zend_array, ptr %276, i32 0, i32 1
  %278 = load i32, ptr %277, align 8
  %279 = and i32 %278, 4
  %280 = icmp ne i32 %279, 0
  call void @llvm.assume(i1 %280)
  br label %281

281:                                              ; preds = %301, %263
  %282 = load ptr, ptr %15, align 8
  %283 = load ptr, ptr %16, align 8
  %284 = icmp ne ptr %282, %283
  br i1 %284, label %285, label %306

285:                                              ; preds = %281
  %286 = load ptr, ptr %15, align 8
  store ptr %286, ptr %6, align 8
  %287 = load ptr, ptr %6, align 8
  %288 = getelementptr inbounds %struct._zval_struct, ptr %287, i32 0, i32 1
  %289 = load i8, ptr %288, align 8
  %290 = zext i8 %289 to i32
  %291 = icmp eq i32 %290, 0
  br i1 %291, label %292, label %293

292:                                              ; preds = %285
  br label %301

293:                                              ; preds = %285
  %294 = load i64, ptr %14, align 8
  store i64 %294, ptr %11, align 8
  %295 = load i64, ptr %11, align 8
  %296 = load i64, ptr %10, align 8
  %297 = add i64 %296, 1
  store i64 %297, ptr %10, align 8
  %298 = icmp ne i64 %295, %296
  br i1 %298, label %299, label %300

299:                                              ; preds = %293
  store i1 false, ptr %8, align 1
  br label %360

300:                                              ; preds = %293
  br label %301

301:                                              ; preds = %300, %292
  %302 = load ptr, ptr %15, align 8
  %303 = getelementptr inbounds %struct._zval_struct, ptr %302, i32 1
  store ptr %303, ptr %15, align 8
  %304 = load i64, ptr %14, align 8
  %305 = add i64 %304, 1
  store i64 %305, ptr %14, align 8
  br label %281

306:                                              ; preds = %281
  br label %359

307:                                              ; preds = %248
  %308 = load ptr, ptr %9, align 8
  store ptr %308, ptr %17, align 8
  %309 = load ptr, ptr %17, align 8
  %310 = getelementptr inbounds %struct._zend_array, ptr %309, i32 0, i32 3
  %311 = load ptr, ptr %310, align 8
  store ptr %311, ptr %18, align 8
  %312 = load ptr, ptr %17, align 8
  %313 = getelementptr inbounds %struct._zend_array, ptr %312, i32 0, i32 3
  %314 = load ptr, ptr %313, align 8
  %315 = load ptr, ptr %17, align 8
  %316 = getelementptr inbounds %struct._zend_array, ptr %315, i32 0, i32 4
  %317 = load i32, ptr %316, align 8
  %318 = zext i32 %317 to i64
  %319 = getelementptr inbounds %struct._Bucket, ptr %314, i64 %318
  store ptr %319, ptr %19, align 8
  %320 = load ptr, ptr %17, align 8
  %321 = getelementptr inbounds %struct._zend_array, ptr %320, i32 0, i32 1
  %322 = load i32, ptr %321, align 8
  %323 = and i32 %322, 4
  %324 = icmp ne i32 %323, 0
  %325 = xor i1 %324, true
  call void @llvm.assume(i1 %325)
  br label %326

326:                                              ; preds = %355, %307
  %327 = load ptr, ptr %18, align 8
  %328 = load ptr, ptr %19, align 8
  %329 = icmp ne ptr %327, %328
  br i1 %329, label %330, label %358

330:                                              ; preds = %326
  %331 = load ptr, ptr %18, align 8
  store ptr %331, ptr %20, align 8
  %332 = load ptr, ptr %20, align 8
  store ptr %332, ptr %7, align 8
  %333 = load ptr, ptr %7, align 8
  %334 = getelementptr inbounds %struct._zval_struct, ptr %333, i32 0, i32 1
  %335 = load i8, ptr %334, align 8
  %336 = zext i8 %335 to i32
  %337 = icmp eq i32 %336, 0
  br i1 %337, label %338, label %339

338:                                              ; preds = %330
  br label %355

339:                                              ; preds = %330
  %340 = load ptr, ptr %18, align 8
  %341 = getelementptr inbounds %struct._Bucket, ptr %340, i32 0, i32 1
  %342 = load i64, ptr %341, align 8
  store i64 %342, ptr %11, align 8
  %343 = load ptr, ptr %18, align 8
  %344 = getelementptr inbounds %struct._Bucket, ptr %343, i32 0, i32 2
  %345 = load ptr, ptr %344, align 8
  store ptr %345, ptr %12, align 8
  %346 = load ptr, ptr %12, align 8
  %347 = icmp ne ptr %346, null
  br i1 %347, label %353, label %348

348:                                              ; preds = %339
  %349 = load i64, ptr %11, align 8
  %350 = load i64, ptr %10, align 8
  %351 = add i64 %350, 1
  store i64 %351, ptr %10, align 8
  %352 = icmp ne i64 %349, %350
  br i1 %352, label %353, label %354

353:                                              ; preds = %348, %339
  store i1 false, ptr %8, align 1
  br label %360

354:                                              ; preds = %348
  br label %355

355:                                              ; preds = %354, %338
  %356 = load ptr, ptr %18, align 8
  %357 = getelementptr inbounds %struct._Bucket, ptr %356, i32 1
  store ptr %357, ptr %18, align 8
  br label %326

358:                                              ; preds = %326
  br label %359

359:                                              ; preds = %358, %306
  store i1 true, ptr %8, align 1
  br label %360

360:                                              ; preds = %359, %353, %299, %262, %247
  %361 = load i1, ptr %8, align 1
  %362 = select i1 %361, i32 3, i32 2
  %363 = load ptr, ptr %33, align 8
  %364 = getelementptr inbounds %struct._zval_struct, ptr %363, i32 0, i32 1
  store i32 %362, ptr %364, align 8
  br label %365

365:                                              ; preds = %360
  br label %366

366:                                              ; preds = %365, %231
  ret void
}