; Function Attrs: nounwind uwtable
define hidden void @zif_array_is_list(ptr noundef %0, ptr nocapture noundef writeonly %1) local_unnamed_addr #0 {
  %3 = getelementptr inbounds i8, ptr %0, i64 44
  %4 = load i32, ptr %3, align 4
  %cond = icmp eq i32 %4, 1
  br i1 %cond, label %5, label %.thread

.thread:                                          ; preds = %2
  tail call void @zend_wrong_parameters_count_error(i32 noundef 1, i32 noundef 1) #8
  br label %9

5:                                                ; preds = %2
  %6 = getelementptr inbounds i8, ptr %0, i64 80
  %7 = getelementptr inbounds i8, ptr %0, i64 88
  %8 = load i8, ptr %7, align 8
  %.not111 = icmp eq i8 %8, 7
  br i1 %.not111, label %10, label %9

9:                                                ; preds = %5, %.thread
  %.0130 = phi i32 [ 1, %.thread ], [ 9, %5 ]
  %.095129 = phi i32 [ 0, %.thread ], [ 6, %5 ]
  %.096128 = phi ptr [ null, %.thread ], [ %6, %5 ]
  %.097127 = phi i32 [ 0, %.thread ], [ 1, %5 ]
  tail call void @zend_wrong_parameter_error(i32 noundef %.0130, i32 noundef %.097127, ptr noundef null, i32 noundef %.095129, ptr noundef %.096128) #8
  br label %56

10:                                               ; preds = %5
  %11 = load ptr, ptr %6, align 8
  %12 = getelementptr inbounds i8, ptr %11, i64 28
  %13 = load i32, ptr %12, align 4
  %14 = icmp eq i32 %13, 0
  br i1 %14, label %.loopexit, label %15

15:                                               ; preds = %10
  %16 = getelementptr inbounds i8, ptr %11, i64 8
  %17 = load i32, ptr %16, align 8
  %18 = and i32 %17, 4
  %.not113 = icmp eq i32 %18, 0
  br i1 %.not113, label %36, label %19

19:                                               ; preds = %15
  %20 = getelementptr inbounds i8, ptr %11, i64 24
  %21 = load i32, ptr %20, align 8
  %22 = icmp eq i32 %21, %13
  br i1 %22, label %.loopexit, label %23

23:                                               ; preds = %19
  %24 = getelementptr inbounds i8, ptr %11, i64 16
  %25 = load ptr, ptr %24, align 8
  %26 = zext i32 %21 to i64
  %27 = getelementptr inbounds %struct._zval_struct, ptr %25, i64 %26
  %.not117138 = icmp eq i32 %21, 0
  br i1 %.not117138, label %.loopexit, label %.lr.ph

.lr.ph:                                           ; preds = %23, %33
  %.094141 = phi i64 [ %.1, %33 ], [ 0, %23 ]
  %.098140 = phi i64 [ %35, %33 ], [ 0, %23 ]
  %.099139 = phi ptr [ %34, %33 ], [ %25, %23 ]
  %28 = getelementptr inbounds i8, ptr %.099139, i64 8
  %29 = load i8, ptr %28, align 8
  %30 = icmp eq i8 %29, 0
  br i1 %30, label %33, label %31

31:                                               ; preds = %.lr.ph
  %32 = add i64 %.094141, 1
  %.not118 = icmp eq i64 %.098140, %.094141
  br i1 %.not118, label %33, label %.loopexit

33:                                               ; preds = %31, %.lr.ph
  %.1 = phi i64 [ %.094141, %.lr.ph ], [ %32, %31 ]
  %34 = getelementptr inbounds i8, ptr %.099139, i64 16
  %35 = add nuw nsw i64 %.098140, 1
  %.not117 = icmp eq ptr %34, %27
  br i1 %.not117, label %.loopexit, label %.lr.ph

36:                                               ; preds = %15
  %37 = getelementptr inbounds i8, ptr %11, i64 16
  %38 = load ptr, ptr %37, align 8
  %39 = getelementptr inbounds i8, ptr %11, i64 24
  %40 = load i32, ptr %39, align 8
  %41 = zext i32 %40 to i64
  %42 = getelementptr inbounds %struct._Bucket, ptr %38, i64 %41
  %.not114144 = icmp eq i32 %40, 0
  br i1 %.not114144, label %.loopexit, label %.lr.ph147

.lr.ph147:                                        ; preds = %36, %53
  %.2146 = phi i64 [ %.3, %53 ], [ 0, %36 ]
  %.0100145 = phi ptr [ %54, %53 ], [ %38, %36 ]
  %43 = getelementptr inbounds i8, ptr %.0100145, i64 8
  %44 = load i8, ptr %43, align 8
  %45 = icmp eq i8 %44, 0
  br i1 %45, label %53, label %46

46:                                               ; preds = %.lr.ph147
  %47 = getelementptr inbounds i8, ptr %.0100145, i64 24
  %48 = load ptr, ptr %47, align 8
  %.not115 = icmp eq ptr %48, null
  br i1 %.not115, label %49, label %.loopexit

49:                                               ; preds = %46
  %50 = getelementptr inbounds i8, ptr %.0100145, i64 16
  %51 = load i64, ptr %50, align 8
  %52 = add i64 %.2146, 1
  %.not116 = icmp eq i64 %51, %.2146
  br i1 %.not116, label %53, label %.loopexit

53:                                               ; preds = %49, %.lr.ph147
  %.3 = phi i64 [ %.2146, %.lr.ph147 ], [ %52, %49 ]
  %54 = getelementptr inbounds i8, ptr %.0100145, i64 32
  %.not114 = icmp eq ptr %54, %42
  br i1 %.not114, label %.loopexit, label %.lr.ph147

.loopexit:                                        ; preds = %31, %33, %49, %46, %53, %23, %36, %19, %10
  %.093 = phi i32 [ 3, %10 ], [ 3, %19 ], [ 3, %36 ], [ 3, %23 ], [ 2, %49 ], [ 2, %46 ], [ 3, %53 ], [ 2, %31 ], [ 3, %33 ]
  %55 = getelementptr inbounds i8, ptr %1, i64 8
  store i32 %.093, ptr %55, align 8
  br label %56

56:                                               ; preds = %.loopexit, %9
  ret void
}